target datalayout = "e-m:e-p270:32:32-p271:32:32-p272:64:64-i64:64-i128:128-f80:128-n8:16:32:64-S128"
target triple = "x86_64-pc-linux-gnu"

%struct.ElsDecCtx = type { ptr, i32, i64, i32, i32, i32, i32 }
%struct.ElsUnsignedRung = type { [11 x i8], ptr, i64, i16 }
%struct.ElsRungNode = type { i8, i16 }

; Function Attrs: nounwind uwtable
define i32 @ff_els_decode_unsigned(ptr noundef %0, ptr noundef %1) #0 {
  %3 = alloca i32, align 4
  %4 = alloca ptr, align 8
  %5 = alloca ptr, align 8
  %6 = alloca i32, align 4
  %7 = alloca i32, align 4
  %8 = alloca i32, align 4
  %9 = alloca i32, align 4
  %10 = alloca ptr, align 8
  %11 = alloca i32, align 4
  %12 = alloca i64, align 8
  store ptr %0, ptr %4, align 8, !tbaa !4
  store ptr %1, ptr %5, align 8, !tbaa !26
  call void @llvm.lifetime.start.p0(i64 4, ptr %6) #5
  call void @llvm.lifetime.start.p0(i64 4, ptr %7) #5
  call void @llvm.lifetime.start.p0(i64 4, ptr %8) #5
  call void @llvm.lifetime.start.p0(i64 4, ptr %9) #5
  call void @llvm.lifetime.start.p0(i64 8, ptr %10) #5
  %13 = load ptr, ptr %4, align 8, !tbaa !4
  %14 = getelementptr inbounds nuw %struct.ElsDecCtx, ptr %13, i32 0, i32 6
  %15 = load i32, ptr %14, align 4, !tbaa !20
  %16 = icmp ne i32 %15, 0
  br i1 %16, label %17, label %18

17:                                               ; preds = %2
  store i32 0, ptr %3, align 4
  store i32 1, ptr %11, align 4
  br label %199

18:                                               ; preds = %2
  store i32 0, ptr %7, align 4, !tbaa !17
  br label %19

19:                                               ; preds = %33, %18
  %20 = load i32, ptr %7, align 4, !tbaa !17
  %21 = icmp slt i32 %20, 11
  br i1 %21, label %22, label %36

22:                                               ; preds = %19
  %23 = load ptr, ptr %4, align 8, !tbaa !4
  %24 = load ptr, ptr %5, align 8, !tbaa !26
  %25 = getelementptr inbounds nuw %struct.ElsUnsignedRung, ptr %24, i32 0, i32 0
  %26 = load i32, ptr %7, align 4, !tbaa !17
  %27 = sext i32 %26 to i64
  %28 = getelementptr inbounds [11 x i8], ptr %25, i64 0, i64 %27
  %29 = call i32 @ff_els_decode_bit(ptr noundef %23, ptr noundef %28)
  %30 = icmp ne i32 %29, 0
  br i1 %30, label %31, label %32

31:                                               ; preds = %22
  br label %36

32:                                               ; preds = %22
  br label %33

33:                                               ; preds = %32
  %34 = load i32, ptr %7, align 4, !tbaa !17
  %35 = add nsw i32 %34, 1
  store i32 %35, ptr %7, align 4, !tbaa !17
  br label %19, !llvm.loop !38

36:                                               ; preds = %31, %19
  %37 = load ptr, ptr %4, align 8, !tbaa !4
  %38 = getelementptr inbounds nuw %struct.ElsDecCtx, ptr %37, i32 0, i32 6
  %39 = load i32, ptr %38, align 4, !tbaa !20
  %40 = icmp ne i32 %39, 0
  br i1 %40, label %44, label %41

41:                                               ; preds = %36
  %42 = load i32, ptr %7, align 4, !tbaa !17
  %43 = icmp sge i32 %42, 10
  br i1 %43, label %44, label %47

44:                                               ; preds = %41, %36
  %45 = load ptr, ptr %4, align 8, !tbaa !4
  %46 = getelementptr inbounds nuw %struct.ElsDecCtx, ptr %45, i32 0, i32 6
  store i32 -1094995529, ptr %46, align 4, !tbaa !20
  store i32 0, ptr %3, align 4
  store i32 1, ptr %11, align 4
  br label %199

47:                                               ; preds = %41
  %48 = load i32, ptr %7, align 4, !tbaa !17
  %49 = icmp ne i32 %48, 0
  br i1 %49, label %51, label %50

50:                                               ; preds = %47
  store i32 0, ptr %3, align 4
  store i32 1, ptr %11, align 4
  br label %199

51:                                               ; preds = %47
  %52 = load ptr, ptr %5, align 8, !tbaa !26
  %53 = getelementptr inbounds nuw %struct.ElsUnsignedRung, ptr %52, i32 0, i32 1
  %54 = load ptr, ptr %53, align 8, !tbaa !39
  %55 = icmp ne ptr %54, null
  br i1 %55, label %75, label %56

56:                                               ; preds = %51
  %57 = call ptr @av_realloc(ptr noundef null, i64 noundef 256)
  %58 = load ptr, ptr %5, align 8, !tbaa !26
  %59 = getelementptr inbounds nuw %struct.ElsUnsignedRung, ptr %58, i32 0, i32 1
  store ptr %57, ptr %59, align 8, !tbaa !39
  %60 = load ptr, ptr %5, align 8, !tbaa !26
  %61 = getelementptr inbounds nuw %struct.ElsUnsignedRung, ptr %60, i32 0, i32 1
  %62 = load ptr, ptr %61, align 8, !tbaa !39
  %63 = icmp ne ptr %62, null
  br i1 %63, label %67, label %64

64:                                               ; preds = %56
  %65 = load ptr, ptr %4, align 8, !tbaa !4
  %66 = getelementptr inbounds nuw %struct.ElsDecCtx, ptr %65, i32 0, i32 6
  store i32 -12, ptr %66, align 4, !tbaa !20
  store i32 0, ptr %3, align 4
  store i32 1, ptr %11, align 4
  br label %199

67:                                               ; preds = %56
  %68 = load ptr, ptr %5, align 8, !tbaa !26
  %69 = getelementptr inbounds nuw %struct.ElsUnsignedRung, ptr %68, i32 0, i32 1
  %70 = load ptr, ptr %69, align 8, !tbaa !39
  call void @llvm.memset.p0.i64(ptr align 2 %70, i8 0, i64 256, i1 false)
  %71 = load ptr, ptr %5, align 8, !tbaa !26
  %72 = getelementptr inbounds nuw %struct.ElsUnsignedRung, ptr %71, i32 0, i32 2
  store i64 256, ptr %72, align 8, !tbaa !42
  %73 = load ptr, ptr %5, align 8, !tbaa !26
  %74 = getelementptr inbounds nuw %struct.ElsUnsignedRung, ptr %73, i32 0, i32 3
  store i16 10, ptr %74, align 8, !tbaa !43
  br label %75

75:                                               ; preds = %67, %51
  store i32 0, ptr %6, align 4, !tbaa !17
  store i32 0, ptr %8, align 4, !tbaa !17
  store i32 0, ptr %9, align 4, !tbaa !17
  br label %76

76:                                               ; preds = %190, %75
  %77 = load i32, ptr %6, align 4, !tbaa !17
  %78 = load i32, ptr %7, align 4, !tbaa !17
  %79 = icmp slt i32 %77, %78
  br i1 %79, label %80, label %193

80:                                               ; preds = %76
  %81 = load i32, ptr %6, align 4, !tbaa !17
  %82 = icmp ne i32 %81, 0
  br i1 %82, label %90, label %83

83:                                               ; preds = %80
  %84 = load ptr, ptr %5, align 8, !tbaa !26
  %85 = getelementptr inbounds nuw %struct.ElsUnsignedRung, ptr %84, i32 0, i32 1
  %86 = load ptr, ptr %85, align 8, !tbaa !39
  %87 = load i32, ptr %7, align 4, !tbaa !17
  %88 = sext i32 %87 to i64
  %89 = getelementptr inbounds %struct.ElsRungNode, ptr %86, i64 %88
  store ptr %89, ptr %10, align 8, !tbaa !44
  br label %174

90:                                               ; preds = %80
  %91 = load ptr, ptr %10, align 8, !tbaa !44
  %92 = getelementptr inbounds nuw %struct.ElsRungNode, ptr %91, i32 0, i32 1
  %93 = load i16, ptr %92, align 2, !tbaa !45
  %94 = icmp ne i16 %93, 0
  br i1 %94, label %162, label %95

95:                                               ; preds = %90
  %96 = load ptr, ptr %5, align 8, !tbaa !26
  %97 = getelementptr inbounds nuw %struct.ElsUnsignedRung, ptr %96, i32 0, i32 2
  %98 = load i64, ptr %97, align 8, !tbaa !42
  %99 = load ptr, ptr %5, align 8, !tbaa !26
  %100 = getelementptr inbounds nuw %struct.ElsUnsignedRung, ptr %99, i32 0, i32 3
  %101 = load i16, ptr %100, align 8, !tbaa !43
  %102 = zext i16 %101 to i32
  %103 = add nsw i32 %102, 2
  %104 = sext i32 %103 to i64
  %105 = mul i64 %104, 4
  %106 = icmp ule i64 %98, %105
  br i1 %106, label %107, label %150

107:                                              ; preds = %95
  call void @llvm.lifetime.start.p0(i64 8, ptr %12) #5
  %108 = load ptr, ptr %10, align 8, !tbaa !44
  %109 = load ptr, ptr %5, align 8, !tbaa !26
  %110 = getelementptr inbounds nuw %struct.ElsUnsignedRung, ptr %109, i32 0, i32 1
  %111 = load ptr, ptr %110, align 8, !tbaa !39
  %112 = ptrtoint ptr %108 to i64
  %113 = ptrtoint ptr %111 to i64
  %114 = sub i64 %112, %113
  %115 = sdiv exact i64 %114, 4
  store i64 %115, ptr %12, align 8, !tbaa !11
  %116 = load ptr, ptr %5, align 8, !tbaa !26
  %117 = getelementptr inbounds nuw %struct.ElsUnsignedRung, ptr %116, i32 0, i32 1
  %118 = load ptr, ptr %5, align 8, !tbaa !26
  %119 = getelementptr inbounds nuw %struct.ElsUnsignedRung, ptr %118, i32 0, i32 2
  %120 = load i64, ptr %119, align 8, !tbaa !42
  %121 = add i64 %120, 256
  %122 = call i32 @av_reallocp(ptr noundef %117, i64 noundef %121)
  %123 = load ptr, ptr %4, align 8, !tbaa !4
  %124 = getelementptr inbounds nuw %struct.ElsDecCtx, ptr %123, i32 0, i32 6
  store i32 %122, ptr %124, align 4, !tbaa !20
  %125 = load ptr, ptr %4, align 8, !tbaa !4
  %126 = getelementptr inbounds nuw %struct.ElsDecCtx, ptr %125, i32 0, i32 6
  %127 = load i32, ptr %126, align 4, !tbaa !20
  %128 = icmp slt i32 %127, 0
  br i1 %128, label %129, label %130

129:                                              ; preds = %107
  store i32 0, ptr %3, align 4
  store i32 1, ptr %11, align 4
  br label %147

130:                                              ; preds = %107
  %131 = load ptr, ptr %5, align 8, !tbaa !26
  %132 = getelementptr inbounds nuw %struct.ElsUnsignedRung, ptr %131, i32 0, i32 1
  %133 = load ptr, ptr %132, align 8, !tbaa !39
  %134 = load ptr, ptr %5, align 8, !tbaa !26
  %135 = getelementptr inbounds nuw %struct.ElsUnsignedRung, ptr %134, i32 0, i32 2
  %136 = load i64, ptr %135, align 8, !tbaa !42
  %137 = getelementptr inbounds nuw i8, ptr %133, i64 %136
  call void @llvm.memset.p0.i64(ptr align 1 %137, i8 0, i64 256, i1 false)
  %138 = load ptr, ptr %5, align 8, !tbaa !26
  %139 = getelementptr inbounds nuw %struct.ElsUnsignedRung, ptr %138, i32 0, i32 2
  %140 = load i64, ptr %139, align 8, !tbaa !42
  %141 = add i64 %140, 256
  store i64 %141, ptr %139, align 8, !tbaa !42
  %142 = load ptr, ptr %5, align 8, !tbaa !26
  %143 = getelementptr inbounds nuw %struct.ElsUnsignedRung, ptr %142, i32 0, i32 1
  %144 = load ptr, ptr %143, align 8, !tbaa !39
  %145 = load i64, ptr %12, align 8, !tbaa !11
  %146 = getelementptr inbounds %struct.ElsRungNode, ptr %144, i64 %145
  store ptr %146, ptr %10, align 8, !tbaa !44
  store i32 0, ptr %11, align 4
  br label %147

147:                                              ; preds = %130, %129
  call void @llvm.lifetime.end.p0(i64 8, ptr %12) #5
  %148 = load i32, ptr %11, align 4
  switch i32 %148, label %199 [
    i32 0, label %149
  ]

149:                                              ; preds = %147
  br label %150

150:                                              ; preds = %149, %95
  %151 = load ptr, ptr %5, align 8, !tbaa !26
  %152 = getelementptr inbounds nuw %struct.ElsUnsignedRung, ptr %151, i32 0, i32 3
  %153 = load i16, ptr %152, align 8, !tbaa !43
  %154 = load ptr, ptr %10, align 8, !tbaa !44
  %155 = getelementptr inbounds nuw %struct.ElsRungNode, ptr %154, i32 0, i32 1
  store i16 %153, ptr %155, align 2, !tbaa !45
  %156 = load ptr, ptr %5, align 8, !tbaa !26
  %157 = getelementptr inbounds nuw %struct.ElsUnsignedRung, ptr %156, i32 0, i32 3
  %158 = load i16, ptr %157, align 8, !tbaa !43
  %159 = zext i16 %158 to i32
  %160 = add nsw i32 %159, 2
  %161 = trunc i32 %160 to i16
  store i16 %161, ptr %157, align 8, !tbaa !43
  br label %162

162:                                              ; preds = %150, %90
  %163 = load ptr, ptr %5, align 8, !tbaa !26
  %164 = getelementptr inbounds nuw %struct.ElsUnsignedRung, ptr %163, i32 0, i32 1
  %165 = load ptr, ptr %164, align 8, !tbaa !39
  %166 = load ptr, ptr %10, align 8, !tbaa !44
  %167 = getelementptr inbounds nuw %struct.ElsRungNode, ptr %166, i32 0, i32 1
  %168 = load i16, ptr %167, align 2, !tbaa !45
  %169 = zext i16 %168 to i32
  %170 = load i32, ptr %9, align 4, !tbaa !17
  %171 = add nsw i32 %169, %170
  %172 = sext i32 %171 to i64
  %173 = getelementptr inbounds %struct.ElsRungNode, ptr %165, i64 %172
  store ptr %173, ptr %10, align 8, !tbaa !44
  br label %174

174:                                              ; preds = %162, %83
  %175 = load ptr, ptr %4, align 8, !tbaa !4
  %176 = load ptr, ptr %10, align 8, !tbaa !44
  %177 = getelementptr inbounds nuw %struct.ElsRungNode, ptr %176, i32 0, i32 0
  %178 = call i32 @ff_els_decode_bit(ptr noundef %175, ptr noundef %177)
  store i32 %178, ptr %9, align 4, !tbaa !17
  %179 = load ptr, ptr %4, align 8, !tbaa !4
  %180 = getelementptr inbounds nuw %struct.ElsDecCtx, ptr %179, i32 0, i32 6
  %181 = load i32, ptr %180, align 4, !tbaa !20
  %182 = icmp ne i32 %181, 0
  br i1 %182, label %183, label %185

183:                                              ; preds = %174
  %184 = load i32, ptr %9, align 4, !tbaa !17
  store i32 %184, ptr %3, align 4
  store i32 1, ptr %11, align 4
  br label %199

185:                                              ; preds = %174
  %186 = load i32, ptr %8, align 4, !tbaa !17
  %187 = shl i32 %186, 1
  %188 = load i32, ptr %9, align 4, !tbaa !17
  %189 = add nsw i32 %187, %188
  store i32 %189, ptr %8, align 4, !tbaa !17
  br label %190

190:                                              ; preds = %185
  %191 = load i32, ptr %6, align 4, !tbaa !17
  %192 = add nsw i32 %191, 1
  store i32 %192, ptr %6, align 4, !tbaa !17
  br label %76, !llvm.loop !47

193:                                              ; preds = %76
  %194 = load i32, ptr %7, align 4, !tbaa !17
  %195 = shl i32 1, %194
  %196 = sub nsw i32 %195, 1
  %197 = load i32, ptr %8, align 4, !tbaa !17
  %198 = add nsw i32 %196, %197
  store i32 %198, ptr %3, align 4
  store i32 1, ptr %11, align 4
  br label %199

199:                                              ; preds = %193, %183, %147, %64, %50, %44, %17
  call void @llvm.lifetime.end.p0(i64 8, ptr %10) #5
  call void @llvm.lifetime.end.p0(i64 4, ptr %9) #5
  call void @llvm.lifetime.end.p0(i64 4, ptr %8) #5
  call void @llvm.lifetime.end.p0(i64 4, ptr %7) #5
  call void @llvm.lifetime.end.p0(i64 4, ptr %6) #5
  %200 = load i32, ptr %3, align 4
  ret i32 %200
}